; Function Attrs: mustprogress uwtable
define internal fastcc noundef zeroext i1 @"_ZZN32pxrInternal_v0_24__pxrReserved__29Usd_SortAutoAppliedAPISchemasEPSt6vectorINS_7TfTokenESaIS1_EEENK3$_0clERKS1_S7_"(ptr nocapture noundef nonnull readonly align 8 dereferenceable(8) %0, ptr %.0.val) unnamed_addr #0 align 2 personality ptr @__gxx_personality_v0 {
  %2 = alloca %"struct.pxrInternal_v0_24__pxrReserved__::TfDictionaryLessThan", align 1
  %3 = ptrtoint ptr %.0.val to i64
  %4 = and i64 %3, -8
  %.not.i.i = icmp eq i64 %4, 0
  br i1 %.not.i.i, label %8, label %5

5:                                                ; preds = %1
  %6 = inttoptr i64 %4 to ptr
  %7 = getelementptr inbounds nuw i8, ptr %6, i64 16
  br label %_ZNK32pxrInternal_v0_24__pxrReserved__7TfTokencvRKNSt7__cxx1112basic_stringIcSt11char_traitsIcESaIcEEEEv.exit

8:                                                ; preds = %1
  %9 = tail call noundef nonnull align 8 dereferenceable(32) ptr @_ZN32pxrInternal_v0_24__pxrReserved__7TfToken15_GetEmptyStringB5cxx11Ev()
  br label %_ZNK32pxrInternal_v0_24__pxrReserved__7TfTokencvRKNSt7__cxx1112basic_stringIcSt11char_traitsIcESaIcEEEEv.exit

_ZNK32pxrInternal_v0_24__pxrReserved__7TfTokencvRKNSt7__cxx1112basic_stringIcSt11char_traitsIcESaIcEEEEv.exit: ; preds = %5, %8
  %10 = phi ptr [ %7, %5 ], [ %9, %8 ]
  %11 = load ptr, ptr %0, align 8
  %12 = ptrtoint ptr %11 to i64
  %13 = and i64 %12, -8
  %.not.i.i2 = icmp eq i64 %13, 0
  br i1 %.not.i.i2, label %17, label %14

14:                                               ; preds = %_ZNK32pxrInternal_v0_24__pxrReserved__7TfTokencvRKNSt7__cxx1112basic_stringIcSt11char_traitsIcESaIcEEEEv.exit
  %15 = inttoptr i64 %13 to ptr
  %16 = getelementptr inbounds nuw i8, ptr %15, i64 16
  br label %_ZNK32pxrInternal_v0_24__pxrReserved__7TfTokencvRKNSt7__cxx1112basic_stringIcSt11char_traitsIcESaIcEEEEv.exit3

17:                                               ; preds = %_ZNK32pxrInternal_v0_24__pxrReserved__7TfTokencvRKNSt7__cxx1112basic_stringIcSt11char_traitsIcESaIcEEEEv.exit
  %18 = tail call noundef nonnull align 8 dereferenceable(32) ptr @_ZN32pxrInternal_v0_24__pxrReserved__7TfToken15_GetEmptyStringB5cxx11Ev()
  br label %_ZNK32pxrInternal_v0_24__pxrReserved__7TfTokencvRKNSt7__cxx1112basic_stringIcSt11char_traitsIcESaIcEEEEv.exit3

_ZNK32pxrInternal_v0_24__pxrReserved__7TfTokencvRKNSt7__cxx1112basic_stringIcSt11char_traitsIcESaIcEEEEv.exit3: ; preds = %14, %17
  %19 = phi ptr [ %16, %14 ], [ %18, %17 ]
  %20 = tail call noundef ptr @_ZNKSt7__cxx1112basic_stringIcSt11char_traitsIcESaIcEE5c_strEv(ptr noundef nonnull align 8 dereferenceable(32) %10) #21
  %21 = load i8, ptr %20, align 1
  %22 = tail call noundef ptr @_ZNKSt7__cxx1112basic_stringIcSt11char_traitsIcESaIcEE5c_strEv(ptr noundef nonnull align 8 dereferenceable(32) %19) #21
  %23 = load i8, ptr %22, align 1
  %24 = zext i8 %21 to i32
  %25 = icmp sgt i8 %21, -1
  %26 = zext i8 %23 to i32
  %27 = icmp sgt i8 %23, -1
  %28 = select i1 %25, i1 %27, i1 false
  br i1 %28, label %29, label %.critedge.i

29:                                               ; preds = %_ZNK32pxrInternal_v0_24__pxrReserved__7TfTokencvRKNSt7__cxx1112basic_stringIcSt11char_traitsIcESaIcEEEEv.exit3
  %30 = icmp ult i8 %21, 64
  %31 = icmp ult i8 %23, 64
  %32 = xor i32 %26, %24
  %33 = and i32 %32, 95
  %.not.i = icmp eq i32 %33, 0
  %34 = select i1 %.not.i, i1 true, i1 %30
  %brmerge.i = select i1 %34, i1 true, i1 %31
  br i1 %brmerge.i, label %.critedge.i, label %35

35:                                               ; preds = %29
  %36 = add nuw nsw i32 %24, 5
  %37 = and i32 %36, 31
  %38 = add nuw nsw i32 %26, 5
  %39 = and i32 %38, 31
  %40 = icmp ult i32 %37, %39
  br label %_ZNK32pxrInternal_v0_24__pxrReserved__20TfDictionaryLessThanclERKNSt7__cxx1112basic_stringIcSt11char_traitsIcESaIcEEES8_.exit

.critedge.i:                                      ; preds = %29, %_ZNK32pxrInternal_v0_24__pxrReserved__7TfTokencvRKNSt7__cxx1112basic_stringIcSt11char_traitsIcESaIcEEEEv.exit3
  %41 = call noundef zeroext i1 @_ZNK32pxrInternal_v0_24__pxrReserved__20TfDictionaryLessThan9_LessImplERKNSt7__cxx1112basic_stringIcSt11char_traitsIcESaIcEEES8_(ptr noundef nonnull align 1 dereferenceable(1) %2, ptr noundef nonnull align 8 dereferenceable(32) %10, ptr noundef nonnull align 8 dereferenceable(32) %19)
  br label %_ZNK32pxrInternal_v0_24__pxrReserved__20TfDictionaryLessThanclERKNSt7__cxx1112basic_stringIcSt11char_traitsIcESaIcEEES8_.exit

_ZNK32pxrInternal_v0_24__pxrReserved__20TfDictionaryLessThanclERKNSt7__cxx1112basic_stringIcSt11char_traitsIcESaIcEEES8_.exit: ; preds = %35, %.critedge.i
  %.0.i = phi i1 [ %40, %35 ], [ %41, %.critedge.i ]
  ret i1 %.0.i
}